; Function Attrs: mustprogress nounwind uwtable
define void @_ZN7Imf_3_419MultiPartOutputFileD2Ev(ptr noundef nonnull align 8 dereferenceable(16) initializes((0, 8)) %0) unnamed_addr #5 align 2 {
  store ptr getelementptr inbounds nuw inrange(-16, 16) (i8, ptr @_ZTVN7Imf_3_419MultiPartOutputFileE, i64 16), ptr %0, align 8, !tbaa !70
  %2 = getelementptr inbounds nuw i8, ptr %0, i64 8
  %3 = load ptr, ptr %2, align 8, !tbaa !17
  %4 = getelementptr inbounds nuw i8, ptr %3, i64 112
  %5 = load ptr, ptr %4, align 8, !tbaa !66
  %6 = getelementptr inbounds nuw i8, ptr %3, i64 96
  %.not4 = icmp eq ptr %5, %6
  br i1 %.not4, label %._crit_edge.thread, label %.lr.ph

._crit_edge:                                      ; preds = %15
  %7 = icmp eq ptr %.pr, null
  br i1 %7, label %18, label %._crit_edge.thread

.lr.ph:                                           ; preds = %1, %15
  %.pr6 = phi ptr [ %.pr, %15 ], [ %3, %1 ]
  %.sroa.02.05 = phi ptr [ %16, %15 ], [ %5, %1 ]
  %8 = getelementptr inbounds nuw i8, ptr %.sroa.02.05, i64 40
  %9 = load ptr, ptr %8, align 8, !tbaa !42
  %10 = icmp eq ptr %9, null
  br i1 %10, label %15, label %11

11:                                               ; preds = %.lr.ph
  %12 = load ptr, ptr %9, align 8, !tbaa !70
  %13 = getelementptr inbounds nuw i8, ptr %12, i64 8
  %14 = load ptr, ptr %13, align 8
  tail call void %14(ptr noundef nonnull align 8 dereferenceable(8) %9) #27
  %.pr.pre = load ptr, ptr %2, align 8, !tbaa !17
  br label %15

15:                                               ; preds = %.lr.ph, %11
  %.pr = phi ptr [ %.pr6, %.lr.ph ], [ %.pr.pre, %11 ]
  %16 = tail call noundef ptr @_ZSt18_Rb_tree_incrementPSt18_Rb_tree_node_base(ptr noundef nonnull %.sroa.02.05) #30
  %17 = getelementptr inbounds nuw i8, ptr %.pr, i64 96
  %.not = icmp eq ptr %16, %17
  br i1 %.not, label %._crit_edge, label %.lr.ph, !llvm.loop !116

._crit_edge.thread:                               ; preds = %1, %._crit_edge
  %.lcssa9 = phi ptr [ %.pr, %._crit_edge ], [ %3, %1 ]
  tail call void @_ZN7Imf_3_419MultiPartOutputFile4DataD2Ev(ptr noundef nonnull align 8 dereferenceable(160) %.lcssa9) #27
  tail call void @_ZdlPvm(ptr noundef nonnull %.lcssa9, i64 noundef 160) #29
  br label %18

18:                                               ; preds = %._crit_edge.thread, %._crit_edge
  tail call void @_ZN7Imf_3_417GenericOutputFileD2Ev(ptr noundef nonnull align 8 dereferenceable(8) %0) #27
  ret void
}